target datalayout = "e-m:e-p270:32:32-p271:32:32-p272:64:64-i64:64-i128:128-f80:128-n8:16:32:64-S128"
target triple = "x86_64-pc-linux-gnu"

%struct.SwsInternal = type { %struct.SwsContext, ptr, ptr, ptr, ptr, i32, [2 x ptr], i32, i32, ptr, i32, i32, i32, i32, i32, i32, i32, i32, i32, i32, i32, i32, i32, i32, i32, i32, i32, i32, ptr, ptr, %struct.RangeList, [3 x ptr], [2 x [4 x i32]], [2 x [4 x ptr]], i32, double, i32, ptr, ptr, i32, [2 x i32], i32, ptr, ptr, [256 x i32], [256 x i32], [256 x float], i32, i32, ptr, i32, ptr, ptr, ptr, ptr, ptr, ptr, ptr, ptr, i32, i32, i32, i32, i32, i32, ptr, ptr, i32, i32, i32, ptr, [8 x i8], [1280 x i32], [1280 x ptr], [1280 x ptr], [1280 x ptr], [176 x i32], [4 x ptr], i32, i32, i32, [4 x i32], [4 x i32], i32, i32, i32, i32, i32, i32, i32, i32, i32, i32, i64, i64, i64, i64, i64, i64, i64, i64, i64, i64, i64, [1024 x i32], [1024 x i32], i32, i64, i64, i64, i64, i64, [1024 x i32], i64, i64, [8 x i16], [8 x i32], ptr, ptr, i32, ptr, ptr, ptr, ptr, [3 x [4 x i16]], [3 x [4 x i16]], ptr, ptr, ptr, ptr, ptr, ptr, ptr, ptr, ptr, ptr, ptr, ptr, ptr, ptr, ptr, ptr, ptr, ptr, ptr, ptr, i32, i32, i64, i64, i32, ptr, i32, ptr, i32, i32, i32, i32, i32, ptr }
%struct.SwsContext = type { ptr, ptr, i32, [2 x double], i32, i32, i32, i32, i32, i32, i32, i32, i32, i32, i32, i32, i32, i32, i32, i32, i32 }
%struct.RangeList = type { ptr, i32, i32 }

@.str.8 = private unnamed_addr constant [35 x i8] c"internal error %s -> %s converter\0A\00", align 1

; Function Attrs: alwaysinline nounwind uwtable
define internal i32 @usePal(i32 noundef %0) #3 {
  %2 = alloca i32, align 4
  %3 = alloca i32, align 4
  store i32 %0, ptr %3, align 4, !tbaa !9
  %4 = load i32, ptr %3, align 4, !tbaa !9
  switch i32 %4, label %6 [
    i32 11, label %5
    i32 19, label %5
    i32 17, label %5
    i32 8, label %5
    i32 22, label %5
    i32 20, label %5
  ]

5:                                                ; preds = %1, %1, %1, %1, %1, %1
  store i32 1, ptr %2, align 4
  br label %7

6:                                                ; preds = %1
  store i32 0, ptr %2, align 4
  br label %7

7:                                                ; preds = %6, %5
  %8 = load i32, ptr %2, align 4
  ret i32 %8
}

; Function Attrs: nounwind uwtable
define internal i32 @palToRgbWrapper(ptr noundef %0, ptr noundef %1, ptr noundef %2, i32 noundef %3, i32 noundef %4, ptr noundef %5, ptr noundef %6) #0 {
  %8 = alloca ptr, align 8
  %9 = alloca ptr, align 8
  %10 = alloca ptr, align 8
  %11 = alloca i32, align 4
  %12 = alloca i32, align 4
  %13 = alloca ptr, align 8
  %14 = alloca ptr, align 8
  %15 = alloca i32, align 4
  %16 = alloca i32, align 4
  %17 = alloca ptr, align 8
  %18 = alloca i32, align 4
  %19 = alloca ptr, align 8
  %20 = alloca ptr, align 8
  store ptr %0, ptr %8, align 8, !tbaa !13
  store ptr %1, ptr %9, align 8, !tbaa !52
  store ptr %2, ptr %10, align 8, !tbaa !54
  store i32 %3, ptr %11, align 4, !tbaa !9
  store i32 %4, ptr %12, align 4, !tbaa !9
  store ptr %5, ptr %13, align 8, !tbaa !52
  store ptr %6, ptr %14, align 8, !tbaa !54
  call void @llvm.lifetime.start.p0(i64 4, ptr %15) #11
  %21 = load ptr, ptr %8, align 8, !tbaa !13
  %22 = getelementptr inbounds nuw %struct.SwsInternal, ptr %21, i32 0, i32 0
  %23 = getelementptr inbounds nuw %struct.SwsContext, ptr %22, i32 0, i32 12
  %24 = load i32, ptr %23, align 8, !tbaa !15
  store i32 %24, ptr %15, align 4, !tbaa !9
  call void @llvm.lifetime.start.p0(i64 4, ptr %16) #11
  %25 = load ptr, ptr %8, align 8, !tbaa !13
  %26 = getelementptr inbounds nuw %struct.SwsInternal, ptr %25, i32 0, i32 0
  %27 = getelementptr inbounds nuw %struct.SwsContext, ptr %26, i32 0, i32 13
  %28 = load i32, ptr %27, align 4, !tbaa !33
  store i32 %28, ptr %16, align 4, !tbaa !9
  call void @llvm.lifetime.start.p0(i64 8, ptr %17) #11
  store ptr null, ptr %17, align 8, !tbaa !56
  call void @llvm.lifetime.start.p0(i64 4, ptr %18) #11
  call void @llvm.lifetime.start.p0(i64 8, ptr %19) #11
  %29 = load ptr, ptr %13, align 8, !tbaa !52
  %30 = getelementptr inbounds ptr, ptr %29, i64 0
  %31 = load ptr, ptr %30, align 8, !tbaa !4
  %32 = load ptr, ptr %14, align 8, !tbaa !54
  %33 = getelementptr inbounds i32, ptr %32, i64 0
  %34 = load i32, ptr %33, align 4, !tbaa !9
  %35 = load i32, ptr %11, align 4, !tbaa !9
  %36 = mul nsw i32 %34, %35
  %37 = sext i32 %36 to i64
  %38 = getelementptr inbounds i8, ptr %31, i64 %37
  store ptr %38, ptr %19, align 8, !tbaa !4
  call void @llvm.lifetime.start.p0(i64 8, ptr %20) #11
  %39 = load ptr, ptr %9, align 8, !tbaa !52
  %40 = getelementptr inbounds ptr, ptr %39, i64 0
  %41 = load ptr, ptr %40, align 8, !tbaa !4
  store ptr %41, ptr %20, align 8, !tbaa !4
  %42 = load i32, ptr %15, align 4, !tbaa !9
  %43 = icmp eq i32 %42, 56
  br i1 %43, label %44, label %53

44:                                               ; preds = %7
  %45 = load i32, ptr %16, align 4, !tbaa !9
  switch i32 %45, label %52 [
    i32 28, label %46
    i32 26, label %47
    i32 25, label %48
    i32 27, label %49
    i32 2, label %50
    i32 3, label %51
  ]

46:                                               ; preds = %44
  store ptr @gray8aToPacked32, ptr %17, align 8, !tbaa !56
  br label %52

47:                                               ; preds = %44
  store ptr @gray8aToPacked32, ptr %17, align 8, !tbaa !56
  br label %52

48:                                               ; preds = %44
  store ptr @gray8aToPacked32_1, ptr %17, align 8, !tbaa !56
  br label %52

49:                                               ; preds = %44
  store ptr @gray8aToPacked32_1, ptr %17, align 8, !tbaa !56
  br label %52

50:                                               ; preds = %44
  store ptr @gray8aToPacked24, ptr %17, align 8, !tbaa !56
  br label %52

51:                                               ; preds = %44
  store ptr @gray8aToPacked24, ptr %17, align 8, !tbaa !56
  br label %52

52:                                               ; preds = %44, %51, %50, %49, %48, %47, %46
  br label %67

53:                                               ; preds = %7
  %54 = load i32, ptr %15, align 4, !tbaa !9
  %55 = call i32 @usePal(i32 noundef %54)
  %56 = icmp ne i32 %55, 0
  br i1 %56, label %57, label %66

57:                                               ; preds = %53
  %58 = load i32, ptr %16, align 4, !tbaa !9
  switch i32 %58, label %65 [
    i32 28, label %59
    i32 26, label %60
    i32 25, label %61
    i32 27, label %62
    i32 2, label %63
    i32 3, label %64
  ]

59:                                               ; preds = %57
  store ptr @sws_convertPalette8ToPacked32, ptr %17, align 8, !tbaa !56
  br label %65

60:                                               ; preds = %57
  store ptr @sws_convertPalette8ToPacked32, ptr %17, align 8, !tbaa !56
  br label %65

61:                                               ; preds = %57
  store ptr @sws_convertPalette8ToPacked32, ptr %17, align 8, !tbaa !56
  br label %65

62:                                               ; preds = %57
  store ptr @sws_convertPalette8ToPacked32, ptr %17, align 8, !tbaa !56
  br label %65

63:                                               ; preds = %57
  store ptr @sws_convertPalette8ToPacked24, ptr %17, align 8, !tbaa !56
  br label %65

64:                                               ; preds = %57
  store ptr @sws_convertPalette8ToPacked24, ptr %17, align 8, !tbaa !56
  br label %65

65:                                               ; preds = %57, %64, %63, %62, %61, %60, %59
  br label %66

66:                                               ; preds = %65, %53
  br label %67

67:                                               ; preds = %66, %52
  %68 = load ptr, ptr %17, align 8, !tbaa !56
  %69 = icmp ne ptr %68, null
  br i1 %69, label %76, label %70

70:                                               ; preds = %67
  %71 = load ptr, ptr %8, align 8, !tbaa !13
  %72 = load i32, ptr %15, align 4, !tbaa !9
  %73 = call ptr @av_get_pix_fmt_name(i32 noundef %72)
  %74 = load i32, ptr %16, align 4, !tbaa !9
  %75 = call ptr @av_get_pix_fmt_name(i32 noundef %74)
  call void (ptr, i32, ptr, ...) @av_log(ptr noundef %71, i32 noundef 16, ptr noundef @.str.8, ptr noundef %73, ptr noundef %75)
  br label %108

76:                                               ; preds = %67
  store i32 0, ptr %18, align 4, !tbaa !9
  br label %77

77:                                               ; preds = %104, %76
  %78 = load i32, ptr %18, align 4, !tbaa !9
  %79 = load i32, ptr %12, align 4, !tbaa !9
  %80 = icmp slt i32 %78, %79
  br i1 %80, label %81, label %107

81:                                               ; preds = %77
  %82 = load ptr, ptr %17, align 8, !tbaa !56
  %83 = load ptr, ptr %20, align 8, !tbaa !4
  %84 = load ptr, ptr %19, align 8, !tbaa !4
  %85 = load ptr, ptr %8, align 8, !tbaa !13
  %86 = getelementptr inbounds nuw %struct.SwsInternal, ptr %85, i32 0, i32 0
  %87 = getelementptr inbounds nuw %struct.SwsContext, ptr %86, i32 0, i32 8
  %88 = load i32, ptr %87, align 8, !tbaa !55
  %89 = load ptr, ptr %8, align 8, !tbaa !13
  %90 = getelementptr inbounds nuw %struct.SwsInternal, ptr %89, i32 0, i32 45
  %91 = getelementptr inbounds [256 x i32], ptr %90, i64 0, i64 0
  call void %82(ptr noundef %83, ptr noundef %84, i32 noundef %88, ptr noundef %91)
  %92 = load ptr, ptr %10, align 8, !tbaa !54
  %93 = getelementptr inbounds i32, ptr %92, i64 0
  %94 = load i32, ptr %93, align 4, !tbaa !9
  %95 = load ptr, ptr %20, align 8, !tbaa !4
  %96 = sext i32 %94 to i64
  %97 = getelementptr inbounds i8, ptr %95, i64 %96
  store ptr %97, ptr %20, align 8, !tbaa !4
  %98 = load ptr, ptr %14, align 8, !tbaa !54
  %99 = getelementptr inbounds i32, ptr %98, i64 0
  %100 = load i32, ptr %99, align 4, !tbaa !9
  %101 = load ptr, ptr %19, align 8, !tbaa !4
  %102 = sext i32 %100 to i64
  %103 = getelementptr inbounds i8, ptr %101, i64 %102
  store ptr %103, ptr %19, align 8, !tbaa !4
  br label %104

104:                                              ; preds = %81
  %105 = load i32, ptr %18, align 4, !tbaa !9
  %106 = add nsw i32 %105, 1
  store i32 %106, ptr %18, align 4, !tbaa !9
  br label %77, !llvm.loop !91

107:                                              ; preds = %77
  br label %108

108:                                              ; preds = %107, %70
  %109 = load i32, ptr %12, align 4, !tbaa !9
  call void @llvm.lifetime.end.p0(i64 8, ptr %20) #11
  call void @llvm.lifetime.end.p0(i64 8, ptr %19) #11
  call void @llvm.lifetime.end.p0(i64 4, ptr %18) #11
  call void @llvm.lifetime.end.p0(i64 8, ptr %17) #11
  call void @llvm.lifetime.end.p0(i64 4, ptr %16) #11
  call void @llvm.lifetime.end.p0(i64 4, ptr %15) #11
  ret i32 %109
}