; Function Attrs: nounwind uwtable
define internal noundef i32 @palToRgbWrapper(ptr noundef %0, ptr noundef readonly captures(none) %1, ptr noundef readonly captures(none) %2, i32 noundef %3, i32 noundef returned %4, ptr noundef readonly captures(none) %5, ptr noundef readonly captures(none) %6) #3 {
  %8 = getelementptr inbounds nuw i8, ptr %0, i64 72
  %9 = load i32, ptr %8, align 8, !tbaa !6
  %10 = getelementptr inbounds nuw i8, ptr %0, i64 76
  %11 = load i32, ptr %10, align 4, !tbaa !29
  %12 = load ptr, ptr %5, align 8, !tbaa !49
  %13 = load i32, ptr %6, align 4, !tbaa !48
  %14 = mul nsw i32 %13, %3
  %15 = sext i32 %14 to i64
  %16 = getelementptr inbounds i8, ptr %12, i64 %15
  %17 = load ptr, ptr %1, align 8, !tbaa !49
  switch i32 %9, label %usePal.exit.thread [
    i32 56, label %18
    i32 11, label %usePal.exit
    i32 19, label %usePal.exit
    i32 17, label %usePal.exit
    i32 8, label %usePal.exit
    i32 22, label %usePal.exit
    i32 20, label %usePal.exit
  ]

18:                                               ; preds = %7
  switch i32 %11, label %usePal.exit.thread [
    i32 28, label %22
    i32 26, label %22
    i32 25, label %19
    i32 27, label %19
    i32 2, label %20
    i32 3, label %20
  ]

19:                                               ; preds = %18, %18
  br label %22

20:                                               ; preds = %18, %18
  br label %22

usePal.exit:                                      ; preds = %7, %7, %7, %7, %7, %7
  switch i32 %11, label %usePal.exit.thread [
    i32 28, label %22
    i32 26, label %22
    i32 25, label %22
    i32 27, label %22
    i32 2, label %21
    i32 3, label %21
  ]

21:                                               ; preds = %usePal.exit, %usePal.exit
  br label %22

22:                                               ; preds = %usePal.exit, %usePal.exit, %usePal.exit, %usePal.exit, %18, %18, %21, %19, %20
  %.028 = phi ptr [ @gray8aToPacked24, %20 ], [ @gray8aToPacked32_1, %19 ], [ @sws_convertPalette8ToPacked24, %21 ], [ @gray8aToPacked32, %18 ], [ @gray8aToPacked32, %18 ], [ @sws_convertPalette8ToPacked32, %usePal.exit ], [ @sws_convertPalette8ToPacked32, %usePal.exit ], [ @sws_convertPalette8ToPacked32, %usePal.exit ], [ @sws_convertPalette8ToPacked32, %usePal.exit ]
  %23 = icmp sgt i32 %4, 0
  br i1 %23, label %.lr.ph, label %.loopexit

.lr.ph:                                           ; preds = %22
  %24 = getelementptr inbounds nuw i8, ptr %0, i64 56
  %25 = getelementptr inbounds nuw i8, ptr %0, i64 1504
  br label %28

usePal.exit.thread:                               ; preds = %7, %18, %usePal.exit
  %26 = tail call ptr @av_get_pix_fmt_name(i32 noundef %9) #13
  %27 = tail call ptr @av_get_pix_fmt_name(i32 noundef %11) #13
  tail call void (ptr, i32, ptr, ...) @av_log(ptr noundef nonnull %0, i32 noundef 16, ptr noundef nonnull @.str.8, ptr noundef %26, ptr noundef %27) #13
  br label %.loopexit

28:                                               ; preds = %.lr.ph, %28
  %.037 = phi ptr [ %17, %.lr.ph ], [ %32, %28 ]
  %.02636 = phi ptr [ %16, %.lr.ph ], [ %35, %28 ]
  %.02735 = phi i32 [ 0, %.lr.ph ], [ %36, %28 ]
  %29 = load i32, ptr %24, align 8, !tbaa !50
  tail call void %.028(ptr noundef %.037, ptr noundef %.02636, i32 noundef %29, ptr noundef nonnull %25) #13
  %30 = load i32, ptr %2, align 4, !tbaa !48
  %31 = sext i32 %30 to i64
  %32 = getelementptr inbounds i8, ptr %.037, i64 %31
  %33 = load i32, ptr %6, align 4, !tbaa !48
  %34 = sext i32 %33 to i64
  %35 = getelementptr inbounds i8, ptr %.02636, i64 %34
  %36 = add nuw nsw i32 %.02735, 1
  %exitcond.not = icmp eq i32 %36, %4
  br i1 %exitcond.not, label %.loopexit, label %28, !llvm.loop !95

.loopexit:                                        ; preds = %28, %22, %usePal.exit.thread
  ret i32 %4
}